target datalayout = "e-m:e-p270:32:32-p271:32:32-p272:64:64-i64:64-i128:128-f80:128-n8:16:32:64-S128"
target triple = "x86_64-pc-linux-gnu"

%struct.AVFilterContext = type { ptr, ptr, ptr, ptr, ptr, i32, ptr, ptr, i32, ptr, ptr, i32, i32, ptr, ptr, ptr, ptr, i32, ptr, i32, i32 }
%struct.IDETContext = type { ptr, float, float, float, float, i64, i32, [3 x i64], [4 x i64], [4 x i64], [3 x i64], [4 x i64], [4 x i64], [4 x i8], ptr, ptr, ptr, ptr, i32, i32, i32, ptr, i32 }
%struct.AVFilterLink = type { ptr, ptr, ptr, ptr, i32, i32, i32, i32, %struct.AVRational, i32, i32, i32, %struct.AVChannelLayout, %struct.AVRational, ptr, i32, %struct.AVFilterFormatsConfig, %struct.AVFilterFormatsConfig }
%struct.AVChannelLayout = type { i32, i32, %union.anon.1, ptr }
%union.anon.1 = type { i64 }
%struct.AVRational = type { i32, i32 }
%struct.AVFilterFormatsConfig = type { ptr, ptr, ptr, ptr, ptr }

; Function Attrs: nounwind uwtable
define internal i32 @request_frame(ptr noundef %0) #0 {
  %2 = alloca i32, align 4
  %3 = alloca ptr, align 8
  %4 = alloca ptr, align 8
  %5 = alloca ptr, align 8
  %6 = alloca i32, align 4
  %7 = alloca i32, align 4
  %8 = alloca ptr, align 8
  store ptr %0, ptr %3, align 8, !tbaa !45
  call void @llvm.lifetime.start.p0(i64 8, ptr %4) #10
  %9 = load ptr, ptr %3, align 8, !tbaa !45
  %10 = getelementptr inbounds nuw %struct.AVFilterLink, ptr %9, i32 0, i32 0
  %11 = load ptr, ptr %10, align 8, !tbaa !93
  store ptr %11, ptr %4, align 8, !tbaa !19
  call void @llvm.lifetime.start.p0(i64 8, ptr %5) #10
  %12 = load ptr, ptr %4, align 8, !tbaa !19
  %13 = getelementptr inbounds nuw %struct.AVFilterContext, ptr %12, i32 0, i32 9
  %14 = load ptr, ptr %13, align 8, !tbaa !21
  store ptr %14, ptr %5, align 8, !tbaa !32
  call void @llvm.lifetime.start.p0(i64 4, ptr %6) #10
  %15 = load ptr, ptr %5, align 8, !tbaa !32
  %16 = getelementptr inbounds nuw %struct.IDETContext, ptr %15, i32 0, i32 22
  %17 = load i32, ptr %16, align 8, !tbaa !34
  %18 = icmp ne i32 %17, 0
  br i1 %18, label %19, label %20

19:                                               ; preds = %1
  store i32 -541478725, ptr %2, align 4
  store i32 1, ptr %7, align 4
  br label %66

20:                                               ; preds = %1
  %21 = load ptr, ptr %3, align 8, !tbaa !45
  %22 = getelementptr inbounds nuw %struct.AVFilterLink, ptr %21, i32 0, i32 0
  %23 = load ptr, ptr %22, align 8, !tbaa !93
  %24 = getelementptr inbounds nuw %struct.AVFilterContext, ptr %23, i32 0, i32 4
  %25 = load ptr, ptr %24, align 8, !tbaa !72
  %26 = getelementptr inbounds ptr, ptr %25, i64 0
  %27 = load ptr, ptr %26, align 8, !tbaa !45
  %28 = call i32 @ff_request_frame(ptr noundef %27)
  store i32 %28, ptr %6, align 4, !tbaa !9
  %29 = load i32, ptr %6, align 4, !tbaa !9
  %30 = icmp eq i32 %29, -541478725
  br i1 %30, label %31, label %64

31:                                               ; preds = %20
  %32 = load ptr, ptr %5, align 8, !tbaa !32
  %33 = getelementptr inbounds nuw %struct.IDETContext, ptr %32, i32 0, i32 14
  %34 = load ptr, ptr %33, align 8, !tbaa !73
  %35 = icmp ne ptr %34, null
  br i1 %35, label %36, label %64

36:                                               ; preds = %31
  %37 = load ptr, ptr %5, align 8, !tbaa !32
  %38 = getelementptr inbounds nuw %struct.IDETContext, ptr %37, i32 0, i32 20
  %39 = load i32, ptr %38, align 8, !tbaa !64
  %40 = icmp ne i32 %39, 0
  br i1 %40, label %64, label %41

41:                                               ; preds = %36
  call void @llvm.lifetime.start.p0(i64 8, ptr %8) #10
  %42 = load ptr, ptr %5, align 8, !tbaa !32
  %43 = getelementptr inbounds nuw %struct.IDETContext, ptr %42, i32 0, i32 15
  %44 = load ptr, ptr %43, align 8, !tbaa !62
  %45 = call ptr @av_frame_clone(ptr noundef %44)
  store ptr %45, ptr %8, align 8, !tbaa !47
  %46 = load ptr, ptr %8, align 8, !tbaa !47
  %47 = icmp ne ptr %46, null
  br i1 %47, label %49, label %48

48:                                               ; preds = %41
  store i32 -12, ptr %2, align 4
  store i32 1, ptr %7, align 4
  br label %61

49:                                               ; preds = %41
  %50 = load ptr, ptr %3, align 8, !tbaa !45
  %51 = getelementptr inbounds nuw %struct.AVFilterLink, ptr %50, i32 0, i32 0
  %52 = load ptr, ptr %51, align 8, !tbaa !93
  %53 = getelementptr inbounds nuw %struct.AVFilterContext, ptr %52, i32 0, i32 4
  %54 = load ptr, ptr %53, align 8, !tbaa !72
  %55 = getelementptr inbounds ptr, ptr %54, i64 0
  %56 = load ptr, ptr %55, align 8, !tbaa !45
  %57 = load ptr, ptr %8, align 8, !tbaa !47
  %58 = call i32 @filter_frame(ptr noundef %56, ptr noundef %57)
  store i32 %58, ptr %6, align 4, !tbaa !9
  %59 = load ptr, ptr %5, align 8, !tbaa !32
  %60 = getelementptr inbounds nuw %struct.IDETContext, ptr %59, i32 0, i32 22
  store i32 1, ptr %60, align 8, !tbaa !34
  store i32 0, ptr %7, align 4
  br label %61

61:                                               ; preds = %49, %48
  call void @llvm.lifetime.end.p0(i64 8, ptr %8) #10
  %62 = load i32, ptr %7, align 4
  switch i32 %62, label %66 [
    i32 0, label %63
  ]

63:                                               ; preds = %61
  br label %64

64:                                               ; preds = %63, %36, %31, %20
  %65 = load i32, ptr %6, align 4, !tbaa !9
  store i32 %65, ptr %2, align 4
  store i32 1, ptr %7, align 4
  br label %66

66:                                               ; preds = %64, %61, %19
  call void @llvm.lifetime.end.p0(i64 4, ptr %6) #10
  call void @llvm.lifetime.end.p0(i64 8, ptr %5) #10
  call void @llvm.lifetime.end.p0(i64 8, ptr %4) #10
  %67 = load i32, ptr %2, align 4
  ret i32 %67
}